target datalayout = "e-m:e-p270:32:32-p271:32:32-p272:64:64-i64:64-i128:128-f80:128-n8:16:32:64-S128"
target triple = "x86_64-pc-linux-gnu"

%struct._generic_N_Vector = type { ptr, ptr, ptr }

; Function Attrs: nounwind uwtable
define i32 @SUNClassicalGS(ptr noundef %0, ptr noundef %1, i32 noundef %2, i32 noundef %3, ptr noundef %4, ptr noundef %5, ptr noundef %6) #0 {
  %8 = alloca ptr, align 8
  %9 = alloca ptr, align 8
  %10 = alloca i32, align 4
  %11 = alloca i32, align 4
  %12 = alloca ptr, align 8
  %13 = alloca ptr, align 8
  %14 = alloca ptr, align 8
  %15 = alloca ptr, align 8
  %16 = alloca i32, align 4
  %17 = alloca i32, align 4
  %18 = alloca i32, align 4
  %19 = alloca double, align 8
  store ptr %0, ptr %8, align 8, !tbaa !3
  store ptr %1, ptr %9, align 8, !tbaa !8
  store i32 %2, ptr %10, align 4, !tbaa !10
  store i32 %3, ptr %11, align 4, !tbaa !10
  store ptr %4, ptr %12, align 8, !tbaa !12
  store ptr %5, ptr %13, align 8, !tbaa !12
  store ptr %6, ptr %14, align 8, !tbaa !3
  call void @llvm.lifetime.start.p0(i64 8, ptr %15) #5
  %20 = load ptr, ptr %8, align 8, !tbaa !3
  %21 = getelementptr inbounds ptr, ptr %20, i64 0
  %22 = load ptr, ptr %21, align 8, !tbaa !14
  %23 = getelementptr inbounds nuw %struct._generic_N_Vector, ptr %22, i32 0, i32 2
  %24 = load ptr, ptr %23, align 8, !tbaa !16
  store ptr %24, ptr %15, align 8, !tbaa !20
  call void @llvm.lifetime.start.p0(i64 4, ptr %16) #5
  call void @llvm.lifetime.start.p0(i64 4, ptr %17) #5
  call void @llvm.lifetime.start.p0(i64 4, ptr %18) #5
  call void @llvm.lifetime.start.p0(i64 8, ptr %19) #5
  %25 = load i32, ptr %10, align 4, !tbaa !10
  %26 = sub nsw i32 %25, 1
  store i32 %26, ptr %18, align 4, !tbaa !10
  %27 = load i32, ptr %10, align 4, !tbaa !10
  %28 = load i32, ptr %11, align 4, !tbaa !10
  %29 = sub nsw i32 %27, %28
  %30 = icmp sgt i32 %29, 0
  br i1 %30, label %31, label %35

31:                                               ; preds = %7
  %32 = load i32, ptr %10, align 4, !tbaa !10
  %33 = load i32, ptr %11, align 4, !tbaa !10
  %34 = sub nsw i32 %32, %33
  br label %36

35:                                               ; preds = %7
  br label %36

36:                                               ; preds = %35, %31
  %37 = phi i32 [ %34, %31 ], [ 0, %35 ]
  store i32 %37, ptr %17, align 4, !tbaa !10
  %38 = load i32, ptr %10, align 4, !tbaa !10
  %39 = load i32, ptr %17, align 4, !tbaa !10
  %40 = sub nsw i32 %38, %39
  %41 = add nsw i32 %40, 1
  %42 = load ptr, ptr %8, align 8, !tbaa !3
  %43 = load i32, ptr %10, align 4, !tbaa !10
  %44 = sext i32 %43 to i64
  %45 = getelementptr inbounds ptr, ptr %42, i64 %44
  %46 = load ptr, ptr %45, align 8, !tbaa !14
  %47 = load ptr, ptr %8, align 8, !tbaa !3
  %48 = load i32, ptr %17, align 4, !tbaa !10
  %49 = sext i32 %48 to i64
  %50 = getelementptr inbounds ptr, ptr %47, i64 %49
  %51 = load ptr, ptr %13, align 8, !tbaa !12
  %52 = call i32 @N_VDotProdMulti(i32 noundef %41, ptr noundef %46, ptr noundef %50, ptr noundef %51)
  %53 = load ptr, ptr %13, align 8, !tbaa !12
  %54 = load i32, ptr %10, align 4, !tbaa !10
  %55 = load i32, ptr %17, align 4, !tbaa !10
  %56 = sub nsw i32 %54, %55
  %57 = sext i32 %56 to i64
  %58 = getelementptr inbounds double, ptr %53, i64 %57
  %59 = load double, ptr %58, align 8, !tbaa !21
  %60 = fcmp ole double %59, 0.000000e+00
  br i1 %60, label %61, label %62

61:                                               ; preds = %36
  br label %71

62:                                               ; preds = %36
  %63 = load ptr, ptr %13, align 8, !tbaa !12
  %64 = load i32, ptr %10, align 4, !tbaa !10
  %65 = load i32, ptr %17, align 4, !tbaa !10
  %66 = sub nsw i32 %64, %65
  %67 = sext i32 %66 to i64
  %68 = getelementptr inbounds double, ptr %63, i64 %67
  %69 = load double, ptr %68, align 8, !tbaa !21
  %70 = call double @sqrt(double noundef %69) #5, !tbaa !10
  br label %71

71:                                               ; preds = %62, %61
  %72 = phi double [ 0.000000e+00, %61 ], [ %70, %62 ]
  store double %72, ptr %19, align 8, !tbaa !21
  %73 = load i32, ptr %10, align 4, !tbaa !10
  %74 = load i32, ptr %17, align 4, !tbaa !10
  %75 = sub nsw i32 %73, %74
  %76 = sub nsw i32 %75, 1
  store i32 %76, ptr %16, align 4, !tbaa !10
  br label %77

77:                                               ; preds = %115, %71
  %78 = load i32, ptr %16, align 4, !tbaa !10
  %79 = icmp sge i32 %78, 0
  br i1 %79, label %80, label %118

80:                                               ; preds = %77
  %81 = load ptr, ptr %13, align 8, !tbaa !12
  %82 = load i32, ptr %16, align 4, !tbaa !10
  %83 = sext i32 %82 to i64
  %84 = getelementptr inbounds double, ptr %81, i64 %83
  %85 = load double, ptr %84, align 8, !tbaa !21
  %86 = load ptr, ptr %9, align 8, !tbaa !8
  %87 = load i32, ptr %16, align 4, !tbaa !10
  %88 = sext i32 %87 to i64
  %89 = getelementptr inbounds ptr, ptr %86, i64 %88
  %90 = load ptr, ptr %89, align 8, !tbaa !12
  %91 = load i32, ptr %18, align 4, !tbaa !10
  %92 = sext i32 %91 to i64
  %93 = getelementptr inbounds double, ptr %90, i64 %92
  store double %85, ptr %93, align 8, !tbaa !21
  %94 = load ptr, ptr %13, align 8, !tbaa !12
  %95 = load i32, ptr %16, align 4, !tbaa !10
  %96 = sext i32 %95 to i64
  %97 = getelementptr inbounds double, ptr %94, i64 %96
  %98 = load double, ptr %97, align 8, !tbaa !21
  %99 = fneg double %98
  %100 = load ptr, ptr %13, align 8, !tbaa !12
  %101 = load i32, ptr %16, align 4, !tbaa !10
  %102 = add nsw i32 %101, 1
  %103 = sext i32 %102 to i64
  %104 = getelementptr inbounds double, ptr %100, i64 %103
  store double %99, ptr %104, align 8, !tbaa !21
  %105 = load ptr, ptr %8, align 8, !tbaa !3
  %106 = load i32, ptr %16, align 4, !tbaa !10
  %107 = sext i32 %106 to i64
  %108 = getelementptr inbounds ptr, ptr %105, i64 %107
  %109 = load ptr, ptr %108, align 8, !tbaa !14
  %110 = load ptr, ptr %14, align 8, !tbaa !3
  %111 = load i32, ptr %16, align 4, !tbaa !10
  %112 = add nsw i32 %111, 1
  %113 = sext i32 %112 to i64
  %114 = getelementptr inbounds ptr, ptr %110, i64 %113
  store ptr %109, ptr %114, align 8, !tbaa !14
  br label %115

115:                                              ; preds = %80
  %116 = load i32, ptr %16, align 4, !tbaa !10
  %117 = add nsw i32 %116, -1
  store i32 %117, ptr %16, align 4, !tbaa !10
  br label %77

118:                                              ; preds = %77
  %119 = load ptr, ptr %13, align 8, !tbaa !12
  %120 = getelementptr inbounds double, ptr %119, i64 0
  store double 1.000000e+00, ptr %120, align 8, !tbaa !21
  %121 = load ptr, ptr %8, align 8, !tbaa !3
  %122 = load i32, ptr %10, align 4, !tbaa !10
  %123 = sext i32 %122 to i64
  %124 = getelementptr inbounds ptr, ptr %121, i64 %123
  %125 = load ptr, ptr %124, align 8, !tbaa !14
  %126 = load ptr, ptr %14, align 8, !tbaa !3
  %127 = getelementptr inbounds ptr, ptr %126, i64 0
  store ptr %125, ptr %127, align 8, !tbaa !14
  %128 = load i32, ptr %10, align 4, !tbaa !10
  %129 = load i32, ptr %17, align 4, !tbaa !10
  %130 = sub nsw i32 %128, %129
  %131 = add nsw i32 %130, 1
  %132 = load ptr, ptr %13, align 8, !tbaa !12
  %133 = load ptr, ptr %14, align 8, !tbaa !3
  %134 = load ptr, ptr %8, align 8, !tbaa !3
  %135 = load i32, ptr %10, align 4, !tbaa !10
  %136 = sext i32 %135 to i64
  %137 = getelementptr inbounds ptr, ptr %134, i64 %136
  %138 = load ptr, ptr %137, align 8, !tbaa !14
  %139 = call i32 @N_VLinearCombination(i32 noundef %131, ptr noundef %132, ptr noundef %133, ptr noundef %138)
  %140 = load ptr, ptr %8, align 8, !tbaa !3
  %141 = load i32, ptr %10, align 4, !tbaa !10
  %142 = sext i32 %141 to i64
  %143 = getelementptr inbounds ptr, ptr %140, i64 %142
  %144 = load ptr, ptr %143, align 8, !tbaa !14
  %145 = load ptr, ptr %8, align 8, !tbaa !3
  %146 = load i32, ptr %10, align 4, !tbaa !10
  %147 = sext i32 %146 to i64
  %148 = getelementptr inbounds ptr, ptr %145, i64 %147
  %149 = load ptr, ptr %148, align 8, !tbaa !14
  %150 = call double @N_VDotProd(ptr noundef %144, ptr noundef %149)
  %151 = fcmp ole double %150, 0.000000e+00
  br i1 %151, label %152, label %153

152:                                              ; preds = %118
  br label %166

153:                                              ; preds = %118
  %154 = load ptr, ptr %8, align 8, !tbaa !3
  %155 = load i32, ptr %10, align 4, !tbaa !10
  %156 = sext i32 %155 to i64
  %157 = getelementptr inbounds ptr, ptr %154, i64 %156
  %158 = load ptr, ptr %157, align 8, !tbaa !14
  %159 = load ptr, ptr %8, align 8, !tbaa !3
  %160 = load i32, ptr %10, align 4, !tbaa !10
  %161 = sext i32 %160 to i64
  %162 = getelementptr inbounds ptr, ptr %159, i64 %161
  %163 = load ptr, ptr %162, align 8, !tbaa !14
  %164 = call double @N_VDotProd(ptr noundef %158, ptr noundef %163)
  %165 = call double @sqrt(double noundef %164) #5, !tbaa !10
  br label %166

166:                                              ; preds = %153, %152
  %167 = phi double [ 0.000000e+00, %152 ], [ %165, %153 ]
  %168 = load ptr, ptr %12, align 8, !tbaa !12
  store double %167, ptr %168, align 8, !tbaa !21
  %169 = load ptr, ptr %12, align 8, !tbaa !12
  %170 = load double, ptr %169, align 8, !tbaa !21
  %171 = fmul double 1.000000e+03, %170
  %172 = load double, ptr %19, align 8, !tbaa !21
  %173 = fcmp olt double %171, %172
  br i1 %173, label %174, label %296

174:                                              ; preds = %166
  %175 = load i32, ptr %10, align 4, !tbaa !10
  %176 = load i32, ptr %17, align 4, !tbaa !10
  %177 = sub nsw i32 %175, %176
  %178 = load ptr, ptr %8, align 8, !tbaa !3
  %179 = load i32, ptr %10, align 4, !tbaa !10
  %180 = sext i32 %179 to i64
  %181 = getelementptr inbounds ptr, ptr %178, i64 %180
  %182 = load ptr, ptr %181, align 8, !tbaa !14
  %183 = load ptr, ptr %8, align 8, !tbaa !3
  %184 = load i32, ptr %17, align 4, !tbaa !10
  %185 = sext i32 %184 to i64
  %186 = getelementptr inbounds ptr, ptr %183, i64 %185
  %187 = load ptr, ptr %13, align 8, !tbaa !12
  %188 = getelementptr inbounds double, ptr %187, i64 1
  %189 = call i32 @N_VDotProdMulti(i32 noundef %177, ptr noundef %182, ptr noundef %186, ptr noundef %188)
  %190 = load ptr, ptr %13, align 8, !tbaa !12
  %191 = getelementptr inbounds double, ptr %190, i64 0
  store double 1.000000e+00, ptr %191, align 8, !tbaa !21
  %192 = load ptr, ptr %8, align 8, !tbaa !3
  %193 = load i32, ptr %10, align 4, !tbaa !10
  %194 = sext i32 %193 to i64
  %195 = getelementptr inbounds ptr, ptr %192, i64 %194
  %196 = load ptr, ptr %195, align 8, !tbaa !14
  %197 = load ptr, ptr %14, align 8, !tbaa !3
  %198 = getelementptr inbounds ptr, ptr %197, i64 0
  store ptr %196, ptr %198, align 8, !tbaa !14
  %199 = load i32, ptr %17, align 4, !tbaa !10
  store i32 %199, ptr %16, align 4, !tbaa !10
  br label %200

200:                                              ; preds = %253, %174
  %201 = load i32, ptr %16, align 4, !tbaa !10
  %202 = load i32, ptr %10, align 4, !tbaa !10
  %203 = icmp slt i32 %201, %202
  br i1 %203, label %204, label %256

204:                                              ; preds = %200
  %205 = load ptr, ptr %13, align 8, !tbaa !12
  %206 = load i32, ptr %16, align 4, !tbaa !10
  %207 = load i32, ptr %17, align 4, !tbaa !10
  %208 = sub nsw i32 %206, %207
  %209 = add nsw i32 %208, 1
  %210 = sext i32 %209 to i64
  %211 = getelementptr inbounds double, ptr %205, i64 %210
  %212 = load double, ptr %211, align 8, !tbaa !21
  %213 = load ptr, ptr %9, align 8, !tbaa !8
  %214 = load i32, ptr %16, align 4, !tbaa !10
  %215 = sext i32 %214 to i64
  %216 = getelementptr inbounds ptr, ptr %213, i64 %215
  %217 = load ptr, ptr %216, align 8, !tbaa !12
  %218 = load i32, ptr %18, align 4, !tbaa !10
  %219 = sext i32 %218 to i64
  %220 = getelementptr inbounds double, ptr %217, i64 %219
  %221 = load double, ptr %220, align 8, !tbaa !21
  %222 = fadd double %221, %212
  store double %222, ptr %220, align 8, !tbaa !21
  %223 = load ptr, ptr %13, align 8, !tbaa !12
  %224 = load i32, ptr %16, align 4, !tbaa !10
  %225 = load i32, ptr %17, align 4, !tbaa !10
  %226 = sub nsw i32 %224, %225
  %227 = add nsw i32 %226, 1
  %228 = sext i32 %227 to i64
  %229 = getelementptr inbounds double, ptr %223, i64 %228
  %230 = load double, ptr %229, align 8, !tbaa !21
  %231 = fneg double %230
  %232 = load ptr, ptr %13, align 8, !tbaa !12
  %233 = load i32, ptr %16, align 4, !tbaa !10
  %234 = load i32, ptr %17, align 4, !tbaa !10
  %235 = sub nsw i32 %233, %234
  %236 = add nsw i32 %235, 1
  %237 = sext i32 %236 to i64
  %238 = getelementptr inbounds double, ptr %232, i64 %237
  store double %231, ptr %238, align 8, !tbaa !21
  %239 = load ptr, ptr %8, align 8, !tbaa !3
  %240 = load i32, ptr %16, align 4, !tbaa !10
  %241 = load i32, ptr %17, align 4, !tbaa !10
  %242 = sub nsw i32 %240, %241
  %243 = sext i32 %242 to i64
  %244 = getelementptr inbounds ptr, ptr %239, i64 %243
  %245 = load ptr, ptr %244, align 8, !tbaa !14
  %246 = load ptr, ptr %14, align 8, !tbaa !3
  %247 = load i32, ptr %16, align 4, !tbaa !10
  %248 = load i32, ptr %17, align 4, !tbaa !10
  %249 = sub nsw i32 %247, %248
  %250 = add nsw i32 %249, 1
  %251 = sext i32 %250 to i64
  %252 = getelementptr inbounds ptr, ptr %246, i64 %251
  store ptr %245, ptr %252, align 8, !tbaa !14
  br label %253

253:                                              ; preds = %204
  %254 = load i32, ptr %16, align 4, !tbaa !10
  %255 = add nsw i32 %254, 1
  store i32 %255, ptr %16, align 4, !tbaa !10
  br label %200

256:                                              ; preds = %200
  %257 = load i32, ptr %10, align 4, !tbaa !10
  %258 = add nsw i32 %257, 1
  %259 = load ptr, ptr %13, align 8, !tbaa !12
  %260 = load ptr, ptr %14, align 8, !tbaa !3
  %261 = load ptr, ptr %8, align 8, !tbaa !3
  %262 = load i32, ptr %10, align 4, !tbaa !10
  %263 = sext i32 %262 to i64
  %264 = getelementptr inbounds ptr, ptr %261, i64 %263
  %265 = load ptr, ptr %264, align 8, !tbaa !14
  %266 = call i32 @N_VLinearCombination(i32 noundef %258, ptr noundef %259, ptr noundef %260, ptr noundef %265)
  %267 = load ptr, ptr %8, align 8, !tbaa !3
  %268 = load i32, ptr %10, align 4, !tbaa !10
  %269 = sext i32 %268 to i64
  %270 = getelementptr inbounds ptr, ptr %267, i64 %269
  %271 = load ptr, ptr %270, align 8, !tbaa !14
  %272 = load ptr, ptr %8, align 8, !tbaa !3
  %273 = load i32, ptr %10, align 4, !tbaa !10
  %274 = sext i32 %273 to i64
  %275 = getelementptr inbounds ptr, ptr %272, i64 %274
  %276 = load ptr, ptr %275, align 8, !tbaa !14
  %277 = call double @N_VDotProd(ptr noundef %271, ptr noundef %276)
  %278 = fcmp ole double %277, 0.000000e+00
  br i1 %278, label %279, label %280

279:                                              ; preds = %256
  br label %293

280:                                              ; preds = %256
  %281 = load ptr, ptr %8, align 8, !tbaa !3
  %282 = load i32, ptr %10, align 4, !tbaa !10
  %283 = sext i32 %282 to i64
  %284 = getelementptr inbounds ptr, ptr %281, i64 %283
  %285 = load ptr, ptr %284, align 8, !tbaa !14
  %286 = load ptr, ptr %8, align 8, !tbaa !3
  %287 = load i32, ptr %10, align 4, !tbaa !10
  %288 = sext i32 %287 to i64
  %289 = getelementptr inbounds ptr, ptr %286, i64 %288
  %290 = load ptr, ptr %289, align 8, !tbaa !14
  %291 = call double @N_VDotProd(ptr noundef %285, ptr noundef %290)
  %292 = call double @sqrt(double noundef %291) #5, !tbaa !10
  br label %293

293:                                              ; preds = %280, %279
  %294 = phi double [ 0.000000e+00, %279 ], [ %292, %280 ]
  %295 = load ptr, ptr %12, align 8, !tbaa !12
  store double %294, ptr %295, align 8, !tbaa !21
  br label %296

296:                                              ; preds = %293, %166
  call void @llvm.lifetime.end.p0(i64 8, ptr %19) #5
  call void @llvm.lifetime.end.p0(i64 4, ptr %18) #5
  call void @llvm.lifetime.end.p0(i64 4, ptr %17) #5
  call void @llvm.lifetime.end.p0(i64 4, ptr %16) #5
  call void @llvm.lifetime.end.p0(i64 8, ptr %15) #5
  ret i32 0
}