; Function Attrs: nounwind uwtable
define noundef i32 @SUNClassicalGS(ptr noundef %0, ptr noundef readonly captures(none) %1, i32 noundef %2, i32 noundef %3, ptr noundef writeonly captures(none) %4, ptr noundef %5, ptr noundef %6) local_unnamed_addr #0 {
  %8 = add nsw i32 %2, -1
  %9 = sub nsw i32 %2, %3
  %10 = tail call i32 @llvm.smax.i32(i32 %9, i32 0)
  %11 = tail call i32 @llvm.smin.i32(i32 %2, i32 %3)
  %12 = add nsw i32 %11, 1
  %13 = sext i32 %2 to i64
  %14 = getelementptr inbounds ptr, ptr %0, i64 %13
  %15 = load ptr, ptr %14, align 8, !tbaa !3
  %16 = zext nneg i32 %10 to i64
  %17 = getelementptr inbounds nuw ptr, ptr %0, i64 %16
  %18 = tail call i32 @N_VDotProdMulti(i32 noundef %12, ptr noundef %15, ptr noundef %17, ptr noundef %5) #7
  %19 = sext i32 %11 to i64
  %20 = getelementptr inbounds double, ptr %5, i64 %19
  %21 = load double, ptr %20, align 8, !tbaa !12
  %22 = fcmp ugt double %21, 0.000000e+00
  br i1 %22, label %23, label %25

23:                                               ; preds = %7
  %24 = tail call double @sqrt(double noundef %21) #7, !tbaa !8
  br label %25

25:                                               ; preds = %7, %23
  %26 = phi double [ %24, %23 ], [ 0.000000e+00, %7 ]
  %27 = icmp sgt i32 %11, 0
  br i1 %27, label %.lr.ph, label %._crit_edge

.lr.ph:                                           ; preds = %25
  %28 = sext i32 %8 to i64
  %29 = zext nneg i32 %11 to i64
  br label %30

30:                                               ; preds = %.lr.ph, %30
  %indvars.iv = phi i64 [ %29, %.lr.ph ], [ %indvars.iv.next, %30 ]
  %indvars.iv.next = add nsw i64 %indvars.iv, -1
  %31 = getelementptr inbounds nuw double, ptr %5, i64 %indvars.iv.next
  %32 = load double, ptr %31, align 8, !tbaa !12
  %33 = getelementptr inbounds nuw ptr, ptr %1, i64 %indvars.iv.next
  %34 = load ptr, ptr %33, align 8, !tbaa !10
  %35 = getelementptr inbounds double, ptr %34, i64 %28
  store double %32, ptr %35, align 8, !tbaa !12
  %36 = fneg double %32
  %37 = getelementptr inbounds nuw double, ptr %5, i64 %indvars.iv
  store double %36, ptr %37, align 8, !tbaa !12
  %38 = getelementptr inbounds nuw ptr, ptr %0, i64 %indvars.iv.next
  %39 = load ptr, ptr %38, align 8, !tbaa !3
  %40 = getelementptr inbounds nuw ptr, ptr %6, i64 %indvars.iv
  store ptr %39, ptr %40, align 8, !tbaa !3
  %41 = icmp samesign ugt i64 %indvars.iv, 1
  br i1 %41, label %30, label %._crit_edge

._crit_edge:                                      ; preds = %30, %25
  store double 1.000000e+00, ptr %5, align 8, !tbaa !12
  %42 = load ptr, ptr %14, align 8, !tbaa !3
  store ptr %42, ptr %6, align 8, !tbaa !3
  %43 = tail call i32 @N_VLinearCombination(i32 noundef %12, ptr noundef nonnull %5, ptr noundef nonnull %6, ptr noundef %42) #7
  %44 = load ptr, ptr %14, align 8, !tbaa !3
  %45 = tail call double @N_VDotProd(ptr noundef %44, ptr noundef %44) #7
  %46 = fcmp ugt double %45, 0.000000e+00
  br i1 %46, label %47, label %51

47:                                               ; preds = %._crit_edge
  %48 = load ptr, ptr %14, align 8, !tbaa !3
  %49 = tail call double @N_VDotProd(ptr noundef %48, ptr noundef %48) #7
  %50 = tail call double @sqrt(double noundef %49) #7, !tbaa !8
  br label %51

51:                                               ; preds = %._crit_edge, %47
  %52 = phi double [ %50, %47 ], [ 0.000000e+00, %._crit_edge ]
  store double %52, ptr %4, align 8, !tbaa !12
  %53 = fmul double %52, 1.000000e+03
  %54 = fcmp olt double %53, %26
  br i1 %54, label %55, label %90

55:                                               ; preds = %51
  %56 = load ptr, ptr %14, align 8, !tbaa !3
  %57 = getelementptr inbounds nuw i8, ptr %5, i64 8
  %58 = tail call i32 @N_VDotProdMulti(i32 noundef %11, ptr noundef %56, ptr noundef nonnull %17, ptr noundef nonnull %57) #7
  store double 1.000000e+00, ptr %5, align 8, !tbaa !12
  %59 = load ptr, ptr %14, align 8, !tbaa !3
  store ptr %59, ptr %6, align 8, !tbaa !3
  %60 = icmp slt i32 %10, %2
  br i1 %60, label %.lr.ph108, label %._crit_edge109

.lr.ph108:                                        ; preds = %55
  %61 = sext i32 %8 to i64
  %62 = zext nneg i32 %10 to i64
  %wide.trip.count = zext i32 %2 to i64
  br label %63

63:                                               ; preds = %.lr.ph108, %63
  %indvars.iv111 = phi i64 [ %16, %.lr.ph108 ], [ %indvars.iv.next112, %63 ]
  %64 = sub nuw nsw i64 %indvars.iv111, %62
  %65 = add nuw nsw i64 %64, 1
  %66 = getelementptr inbounds nuw double, ptr %5, i64 %65
  %67 = load double, ptr %66, align 8, !tbaa !12
  %68 = getelementptr inbounds nuw ptr, ptr %1, i64 %indvars.iv111
  %69 = load ptr, ptr %68, align 8, !tbaa !10
  %70 = getelementptr inbounds double, ptr %69, i64 %61
  %71 = load double, ptr %70, align 8, !tbaa !12
  %72 = fadd double %67, %71
  store double %72, ptr %70, align 8, !tbaa !12
  %73 = load double, ptr %66, align 8, !tbaa !12
  %74 = fneg double %73
  store double %74, ptr %66, align 8, !tbaa !12
  %75 = getelementptr inbounds nuw ptr, ptr %0, i64 %64
  %76 = load ptr, ptr %75, align 8, !tbaa !3
  %77 = getelementptr inbounds nuw ptr, ptr %6, i64 %65
  store ptr %76, ptr %77, align 8, !tbaa !3
  %indvars.iv.next112 = add nuw nsw i64 %indvars.iv111, 1
  %exitcond.not = icmp eq i64 %indvars.iv.next112, %wide.trip.count
  br i1 %exitcond.not, label %._crit_edge109.loopexit, label %63

._crit_edge109.loopexit:                          ; preds = %63
  %.pre = load ptr, ptr %14, align 8, !tbaa !3
  br label %._crit_edge109

._crit_edge109:                                   ; preds = %._crit_edge109.loopexit, %55
  %78 = phi ptr [ %.pre, %._crit_edge109.loopexit ], [ %59, %55 ]
  %79 = add nsw i32 %2, 1
  %80 = tail call i32 @N_VLinearCombination(i32 noundef %79, ptr noundef nonnull %5, ptr noundef nonnull %6, ptr noundef %78) #7
  %81 = load ptr, ptr %14, align 8, !tbaa !3
  %82 = tail call double @N_VDotProd(ptr noundef %81, ptr noundef %81) #7
  %83 = fcmp ugt double %82, 0.000000e+00
  br i1 %83, label %84, label %88

84:                                               ; preds = %._crit_edge109
  %85 = load ptr, ptr %14, align 8, !tbaa !3
  %86 = tail call double @N_VDotProd(ptr noundef %85, ptr noundef %85) #7
  %87 = tail call double @sqrt(double noundef %86) #7, !tbaa !8
  br label %88

88:                                               ; preds = %._crit_edge109, %84
  %89 = phi double [ %87, %84 ], [ 0.000000e+00, %._crit_edge109 ]
  store double %89, ptr %4, align 8, !tbaa !12
  br label %90

90:                                               ; preds = %88, %51
  ret i32 0
}